target datalayout = "e-m:e-p270:32:32-p271:32:32-p272:64:64-i64:64-i128:128-f80:128-n8:16:32:64-S128"
target triple = "x86_64-pc-linux-gnu"

%struct.expert_field = type { i32, i32 }

@ei_pn_rsi_error = internal global %struct.expert_field zeroinitializer, align 4
@.str.5 = private unnamed_addr constant [41 x i8] c"Block version %u.%u not implemented yet!\00", align 1
@hf_pn_rsi_number_of_entries = internal global i32 0, align 4
@.str.6 = private unnamed_addr constant [21 x i8] c": NumberOfEntries:%u\00", align 1
@hf_pn_rsi_pd_rsi_instance = internal global i32 0, align 4
@ett_pn_io_pd_rsi_instance = internal global i32 0, align 4
@hf_pn_rsi_vendor_id = internal global i32 0, align 4
@hf_pn_rsi_device_id = internal global i32 0, align 4
@hf_pn_rsi_instance_id = internal global i32 0, align 4
@hf_pn_rsi_interface = internal global i32 0, align 4
@.str.7 = private unnamed_addr constant [59 x i8] c": VendorID:%u, DeviceID:%u, InstanceID:%u, RsiInterface:%u\00", align 1
@hf_pn_rsi_device_type = internal global i32 0, align 4
@hf_pn_rsi_order_id = internal global i32 0, align 4
@hf_pn_rsi_im_serial_number = internal global i32 0, align 4
@hf_pn_rsi_hw_revision = internal global i32 0, align 4
@hf_pn_rsi_sw_revision_prefix = internal global i32 0, align 4
@hf_pn_rsi_sw_revision = internal global i32 0, align 4

; Function Attrs: null_pointer_is_valid sspstrong uwtable
define hidden i32 @dissect_PDRsiInstances_block(ptr noundef %0, i32 noundef %1, ptr noundef %2, ptr noundef %3, ptr noundef %4, ptr noundef %5, i8 noundef zeroext %6, i8 noundef zeroext %7) #0 {
  %9 = alloca i32, align 4
  %10 = alloca ptr, align 8
  %11 = alloca i32, align 4
  %12 = alloca ptr, align 8
  %13 = alloca ptr, align 8
  %14 = alloca ptr, align 8
  %15 = alloca ptr, align 8
  %16 = alloca i8, align 1
  %17 = alloca i8, align 1
  %18 = alloca ptr, align 8
  %19 = alloca ptr, align 8
  %20 = alloca i16, align 2
  %21 = alloca i16, align 2
  %22 = alloca i16, align 2
  %23 = alloca i16, align 2
  %24 = alloca i8, align 1
  %25 = alloca i32, align 4
  %26 = alloca i32, align 4
  %27 = alloca i32, align 4
  %28 = alloca i32, align 4
  %29 = alloca i32, align 4
  %30 = alloca i32, align 4
  %31 = alloca i32, align 4
  store ptr %0, ptr %10, align 8
  store i32 %1, ptr %11, align 4
  store ptr %2, ptr %12, align 8
  store ptr %3, ptr %13, align 8
  store ptr %4, ptr %14, align 8
  store ptr %5, ptr %15, align 8
  store i8 %6, ptr %16, align 1
  store i8 %7, ptr %17, align 1
  call void @llvm.lifetime.start.p0(i64 8, ptr %18) #4
  call void @llvm.lifetime.start.p0(i64 8, ptr %19) #4
  call void @llvm.lifetime.start.p0(i64 2, ptr %20) #4
  call void @llvm.lifetime.start.p0(i64 2, ptr %21) #4
  call void @llvm.lifetime.start.p0(i64 2, ptr %22) #4
  call void @llvm.lifetime.start.p0(i64 2, ptr %23) #4
  call void @llvm.lifetime.start.p0(i64 1, ptr %24) #4
  call void @llvm.lifetime.start.p0(i64 4, ptr %25) #4
  store i32 25, ptr %25, align 4
  call void @llvm.lifetime.start.p0(i64 4, ptr %26) #4
  store i32 20, ptr %26, align 4
  call void @llvm.lifetime.start.p0(i64 4, ptr %27) #4
  store i32 16, ptr %27, align 4
  call void @llvm.lifetime.start.p0(i64 4, ptr %28) #4
  store i32 5, ptr %28, align 4
  call void @llvm.lifetime.start.p0(i64 4, ptr %29) #4
  store i32 1, ptr %29, align 4
  call void @llvm.lifetime.start.p0(i64 4, ptr %30) #4
  store i32 9, ptr %30, align 4
  %32 = load i8, ptr %16, align 1
  %33 = zext i8 %32 to i32
  %34 = icmp ne i32 %33, 1
  br i1 %34, label %39, label %35

35:                                               ; preds = %8
  %36 = load i8, ptr %17, align 1
  %37 = zext i8 %36 to i32
  %38 = icmp ne i32 %37, 0
  br i1 %38, label %39, label %48

39:                                               ; preds = %35, %8
  %40 = load ptr, ptr %12, align 8
  %41 = load ptr, ptr %14, align 8
  %42 = load i8, ptr %16, align 1
  %43 = zext i8 %42 to i32
  %44 = load i8, ptr %17, align 1
  %45 = zext i8 %44 to i32
  %46 = call ptr (ptr, ptr, ptr, ptr, ...) @expert_add_info_format(ptr noundef %40, ptr noundef %41, ptr noundef @ei_pn_rsi_error, ptr noundef @.str.5, i32 noundef %43, i32 noundef %45)
  %47 = load i32, ptr %11, align 4
  store i32 %47, ptr %9, align 4
  store i32 1, ptr %31, align 4
  br label %160

48:                                               ; preds = %35
  %49 = load ptr, ptr %10, align 8
  %50 = load i32, ptr %11, align 4
  %51 = load ptr, ptr %12, align 8
  %52 = load ptr, ptr %13, align 8
  %53 = load ptr, ptr %15, align 8
  %54 = load i32, ptr @hf_pn_rsi_number_of_entries, align 4
  %55 = call i32 @dissect_dcerpc_uint16(ptr noundef %49, i32 noundef %50, ptr noundef %51, ptr noundef %52, ptr noundef %53, i32 noundef %54, ptr noundef %20)
  store i32 %55, ptr %11, align 4
  %56 = load ptr, ptr %14, align 8
  %57 = load i16, ptr %20, align 2
  %58 = zext i16 %57 to i32
  call void (ptr, ptr, ...) @proto_item_append_text(ptr noundef %56, ptr noundef @.str.6, i32 noundef %58)
  br label %59

59:                                               ; preds = %63, %48
  %60 = load i16, ptr %20, align 2
  %61 = zext i16 %60 to i32
  %62 = icmp sgt i32 %61, 0
  br i1 %62, label %63, label %116

63:                                               ; preds = %59
  %64 = load i16, ptr %20, align 2
  %65 = add i16 %64, -1
  store i16 %65, ptr %20, align 2
  %66 = load ptr, ptr %13, align 8
  %67 = load i32, ptr @hf_pn_rsi_pd_rsi_instance, align 4
  %68 = load ptr, ptr %10, align 8
  %69 = load i32, ptr %11, align 4
  %70 = call ptr @proto_tree_add_item(ptr noundef %66, i32 noundef %67, ptr noundef %68, i32 noundef %69, i32 noundef 0, i32 noundef 0)
  store ptr %70, ptr %18, align 8
  %71 = load ptr, ptr %18, align 8
  %72 = load i32, ptr @ett_pn_io_pd_rsi_instance, align 4
  %73 = call ptr @proto_item_add_subtree(ptr noundef %71, i32 noundef %72)
  store ptr %73, ptr %19, align 8
  %74 = load ptr, ptr %10, align 8
  %75 = load i32, ptr %11, align 4
  %76 = load ptr, ptr %12, align 8
  %77 = load ptr, ptr %19, align 8
  %78 = load ptr, ptr %15, align 8
  %79 = load i32, ptr @hf_pn_rsi_vendor_id, align 4
  %80 = call i32 @dissect_dcerpc_uint16(ptr noundef %74, i32 noundef %75, ptr noundef %76, ptr noundef %77, ptr noundef %78, i32 noundef %79, ptr noundef %21)
  store i32 %80, ptr %11, align 4
  %81 = load ptr, ptr %10, align 8
  %82 = load i32, ptr %11, align 4
  %83 = load ptr, ptr %12, align 8
  %84 = load ptr, ptr %19, align 8
  %85 = load ptr, ptr %15, align 8
  %86 = load i32, ptr @hf_pn_rsi_device_id, align 4
  %87 = call i32 @dissect_dcerpc_uint16(ptr noundef %81, i32 noundef %82, ptr noundef %83, ptr noundef %84, ptr noundef %85, i32 noundef %86, ptr noundef %22)
  store i32 %87, ptr %11, align 4
  %88 = load ptr, ptr %10, align 8
  %89 = load i32, ptr %11, align 4
  %90 = load ptr, ptr %12, align 8
  %91 = load ptr, ptr %19, align 8
  %92 = load ptr, ptr %15, align 8
  %93 = load i32, ptr @hf_pn_rsi_instance_id, align 4
  %94 = call i32 @dissect_dcerpc_uint16(ptr noundef %88, i32 noundef %89, ptr noundef %90, ptr noundef %91, ptr noundef %92, i32 noundef %93, ptr noundef %23)
  store i32 %94, ptr %11, align 4
  %95 = load ptr, ptr %10, align 8
  %96 = load i32, ptr %11, align 4
  %97 = load ptr, ptr %12, align 8
  %98 = load ptr, ptr %19, align 8
  %99 = load ptr, ptr %15, align 8
  %100 = load i32, ptr @hf_pn_rsi_interface, align 4
  %101 = call i32 @dissect_dcerpc_uint8(ptr noundef %95, i32 noundef %96, ptr noundef %97, ptr noundef %98, ptr noundef %99, i32 noundef %100, ptr noundef %24)
  store i32 %101, ptr %11, align 4
  %102 = load ptr, ptr %18, align 8
  %103 = load i16, ptr %21, align 2
  %104 = zext i16 %103 to i32
  %105 = load i16, ptr %22, align 2
  %106 = zext i16 %105 to i32
  %107 = load i16, ptr %23, align 2
  %108 = zext i16 %107 to i32
  %109 = load i8, ptr %24, align 1
  %110 = zext i8 %109 to i32
  call void (ptr, ptr, ...) @proto_item_append_text(ptr noundef %102, ptr noundef @.str.7, i32 noundef %104, i32 noundef %106, i32 noundef %108, i32 noundef %110)
  %111 = load ptr, ptr %10, align 8
  %112 = load i32, ptr %11, align 4
  %113 = load ptr, ptr %12, align 8
  %114 = load ptr, ptr %19, align 8
  %115 = call i32 @dissect_pn_padding(ptr noundef %111, i32 noundef %112, ptr noundef %113, ptr noundef %114, i32 noundef 1)
  store i32 %115, ptr %11, align 4
  br label %59, !llvm.loop !6

116:                                              ; preds = %59
  %117 = load ptr, ptr %13, align 8
  %118 = load i32, ptr @hf_pn_rsi_device_type, align 4
  %119 = load ptr, ptr %10, align 8
  %120 = load i32, ptr %11, align 4
  %121 = call ptr @proto_tree_add_item(ptr noundef %117, i32 noundef %118, ptr noundef %119, i32 noundef %120, i32 noundef 25, i32 noundef 2)
  %122 = load i32, ptr %11, align 4
  %123 = add i32 %122, 26
  store i32 %123, ptr %11, align 4
  %124 = load ptr, ptr %13, align 8
  %125 = load i32, ptr @hf_pn_rsi_order_id, align 4
  %126 = load ptr, ptr %10, align 8
  %127 = load i32, ptr %11, align 4
  %128 = call ptr @proto_tree_add_item(ptr noundef %124, i32 noundef %125, ptr noundef %126, i32 noundef %127, i32 noundef 20, i32 noundef 2)
  %129 = load i32, ptr %11, align 4
  %130 = add i32 %129, 21
  store i32 %130, ptr %11, align 4
  %131 = load ptr, ptr %13, align 8
  %132 = load i32, ptr @hf_pn_rsi_im_serial_number, align 4
  %133 = load ptr, ptr %10, align 8
  %134 = load i32, ptr %11, align 4
  %135 = call ptr @proto_tree_add_item(ptr noundef %131, i32 noundef %132, ptr noundef %133, i32 noundef %134, i32 noundef 16, i32 noundef 2)
  %136 = load i32, ptr %11, align 4
  %137 = add i32 %136, 17
  store i32 %137, ptr %11, align 4
  %138 = load ptr, ptr %13, align 8
  %139 = load i32, ptr @hf_pn_rsi_hw_revision, align 4
  %140 = load ptr, ptr %10, align 8
  %141 = load i32, ptr %11, align 4
  %142 = call ptr @proto_tree_add_item(ptr noundef %138, i32 noundef %139, ptr noundef %140, i32 noundef %141, i32 noundef 5, i32 noundef 2)
  %143 = load i32, ptr %11, align 4
  %144 = add i32 %143, 6
  store i32 %144, ptr %11, align 4
  %145 = load ptr, ptr %13, align 8
  %146 = load i32, ptr @hf_pn_rsi_sw_revision_prefix, align 4
  %147 = load ptr, ptr %10, align 8
  %148 = load i32, ptr %11, align 4
  %149 = call ptr @proto_tree_add_item(ptr noundef %145, i32 noundef %146, ptr noundef %147, i32 noundef %148, i32 noundef 1, i32 noundef 2)
  %150 = load i32, ptr %11, align 4
  %151 = add i32 %150, 1
  store i32 %151, ptr %11, align 4
  %152 = load ptr, ptr %13, align 8
  %153 = load i32, ptr @hf_pn_rsi_sw_revision, align 4
  %154 = load ptr, ptr %10, align 8
  %155 = load i32, ptr %11, align 4
  %156 = call ptr @proto_tree_add_item(ptr noundef %152, i32 noundef %153, ptr noundef %154, i32 noundef %155, i32 noundef 9, i32 noundef 2)
  %157 = load i32, ptr %11, align 4
  %158 = add i32 %157, 9
  store i32 %158, ptr %11, align 4
  %159 = load i32, ptr %11, align 4
  store i32 %159, ptr %9, align 4
  store i32 1, ptr %31, align 4
  br label %160

160:                                              ; preds = %116, %39
  call void @llvm.lifetime.end.p0(i64 4, ptr %30) #4
  call void @llvm.lifetime.end.p0(i64 4, ptr %29) #4
  call void @llvm.lifetime.end.p0(i64 4, ptr %28) #4
  call void @llvm.lifetime.end.p0(i64 4, ptr %27) #4
  call void @llvm.lifetime.end.p0(i64 4, ptr %26) #4
  call void @llvm.lifetime.end.p0(i64 4, ptr %25) #4
  call void @llvm.lifetime.end.p0(i64 1, ptr %24) #4
  call void @llvm.lifetime.end.p0(i64 2, ptr %23) #4
  call void @llvm.lifetime.end.p0(i64 2, ptr %22) #4
  call void @llvm.lifetime.end.p0(i64 2, ptr %21) #4
  call void @llvm.lifetime.end.p0(i64 2, ptr %20) #4
  call void @llvm.lifetime.end.p0(i64 8, ptr %19) #4
  call void @llvm.lifetime.end.p0(i64 8, ptr %18) #4
  %161 = load i32, ptr %9, align 4
  ret i32 %161
}