; Function Attrs: null_pointer_is_valid sspstrong uwtable
define hidden noundef i32 @dissect_PDRsiInstances_block(ptr noundef %0, i32 noundef %1, ptr noundef %2, ptr noundef %3, ptr noundef %4, ptr noundef %5, i8 noundef zeroext %6, i8 noundef zeroext %7) local_unnamed_addr #0 {
  %9 = alloca i16, align 2
  %10 = alloca i16, align 2
  %11 = alloca i16, align 2
  %12 = alloca i16, align 2
  %13 = alloca i8, align 1
  call void @llvm.lifetime.start.p0(i64 2, ptr nonnull %9) #3
  call void @llvm.lifetime.start.p0(i64 2, ptr nonnull %10) #3
  call void @llvm.lifetime.start.p0(i64 2, ptr nonnull %11) #3
  call void @llvm.lifetime.start.p0(i64 2, ptr nonnull %12) #3
  call void @llvm.lifetime.start.p0(i64 1, ptr nonnull %13) #3
  %14 = icmp ne i8 %6, 1
  %15 = icmp ne i8 %7, 0
  %or.cond = or i1 %14, %15
  br i1 %or.cond, label %16, label %20

16:                                               ; preds = %8
  %17 = zext i8 %7 to i32
  %18 = zext i8 %6 to i32
  %19 = tail call ptr (ptr, ptr, ptr, ptr, ...) @expert_add_info_format(ptr noundef %2, ptr noundef %4, ptr noundef nonnull @ei_pn_rsi_error, ptr noundef nonnull @.str.5, i32 noundef %18, i32 noundef %17)
  br label %68

20:                                               ; preds = %8
  %21 = load i32, ptr @hf_pn_rsi_number_of_entries, align 4
  %22 = call i32 @dissect_dcerpc_uint16(ptr noundef %0, i32 noundef %1, ptr noundef %2, ptr noundef %3, ptr noundef %5, i32 noundef %21, ptr noundef nonnull %9)
  %23 = load i16, ptr %9, align 2
  %24 = zext i16 %23 to i32
  call void (ptr, ptr, ...) @proto_item_append_text(ptr noundef %4, ptr noundef nonnull @.str.6, i32 noundef %24)
  %25 = load i16, ptr %9, align 2
  %.not70 = icmp eq i16 %25, 0
  br i1 %.not70, label %._crit_edge, label %.lr.ph

.lr.ph:                                           ; preds = %20, %.lr.ph
  %26 = phi i16 [ %49, %.lr.ph ], [ %25, %20 ]
  %.06971 = phi i32 [ %48, %.lr.ph ], [ %22, %20 ]
  %27 = add i16 %26, -1
  store i16 %27, ptr %9, align 2
  %28 = load i32, ptr @hf_pn_rsi_pd_rsi_instance, align 4
  %29 = call ptr @proto_tree_add_item(ptr noundef %3, i32 noundef %28, ptr noundef %0, i32 noundef %.06971, i32 noundef 0, i32 noundef 0)
  %30 = load i32, ptr @ett_pn_io_pd_rsi_instance, align 4
  %31 = call ptr @proto_item_add_subtree(ptr noundef %29, i32 noundef %30)
  %32 = load i32, ptr @hf_pn_rsi_vendor_id, align 4
  %33 = call i32 @dissect_dcerpc_uint16(ptr noundef %0, i32 noundef %.06971, ptr noundef %2, ptr noundef %31, ptr noundef %5, i32 noundef %32, ptr noundef nonnull %10)
  %34 = load i32, ptr @hf_pn_rsi_device_id, align 4
  %35 = call i32 @dissect_dcerpc_uint16(ptr noundef %0, i32 noundef %33, ptr noundef %2, ptr noundef %31, ptr noundef %5, i32 noundef %34, ptr noundef nonnull %11)
  %36 = load i32, ptr @hf_pn_rsi_instance_id, align 4
  %37 = call i32 @dissect_dcerpc_uint16(ptr noundef %0, i32 noundef %35, ptr noundef %2, ptr noundef %31, ptr noundef %5, i32 noundef %36, ptr noundef nonnull %12)
  %38 = load i32, ptr @hf_pn_rsi_interface, align 4
  %39 = call i32 @dissect_dcerpc_uint8(ptr noundef %0, i32 noundef %37, ptr noundef %2, ptr noundef %31, ptr noundef %5, i32 noundef %38, ptr noundef nonnull %13)
  %40 = load i16, ptr %10, align 2
  %41 = zext i16 %40 to i32
  %42 = load i16, ptr %11, align 2
  %43 = zext i16 %42 to i32
  %44 = load i16, ptr %12, align 2
  %45 = zext i16 %44 to i32
  %46 = load i8, ptr %13, align 1
  %47 = zext i8 %46 to i32
  call void (ptr, ptr, ...) @proto_item_append_text(ptr noundef %29, ptr noundef nonnull @.str.7, i32 noundef %41, i32 noundef %43, i32 noundef %45, i32 noundef %47)
  %48 = call i32 @dissect_pn_padding(ptr noundef %0, i32 noundef %39, ptr noundef %2, ptr noundef %31, i32 noundef 1)
  %49 = load i16, ptr %9, align 2
  %.not = icmp eq i16 %49, 0
  br i1 %.not, label %._crit_edge, label %.lr.ph, !llvm.loop !6

._crit_edge:                                      ; preds = %.lr.ph, %20
  %.069.lcssa = phi i32 [ %22, %20 ], [ %48, %.lr.ph ]
  %50 = load i32, ptr @hf_pn_rsi_device_type, align 4
  %51 = call ptr @proto_tree_add_item(ptr noundef %3, i32 noundef %50, ptr noundef %0, i32 noundef %.069.lcssa, i32 noundef 25, i32 noundef 2)
  %52 = add i32 %.069.lcssa, 26
  %53 = load i32, ptr @hf_pn_rsi_order_id, align 4
  %54 = call ptr @proto_tree_add_item(ptr noundef %3, i32 noundef %53, ptr noundef %0, i32 noundef %52, i32 noundef 20, i32 noundef 2)
  %55 = add i32 %.069.lcssa, 47
  %56 = load i32, ptr @hf_pn_rsi_im_serial_number, align 4
  %57 = call ptr @proto_tree_add_item(ptr noundef %3, i32 noundef %56, ptr noundef %0, i32 noundef %55, i32 noundef 16, i32 noundef 2)
  %58 = add i32 %.069.lcssa, 64
  %59 = load i32, ptr @hf_pn_rsi_hw_revision, align 4
  %60 = call ptr @proto_tree_add_item(ptr noundef %3, i32 noundef %59, ptr noundef %0, i32 noundef %58, i32 noundef 5, i32 noundef 2)
  %61 = add i32 %.069.lcssa, 70
  %62 = load i32, ptr @hf_pn_rsi_sw_revision_prefix, align 4
  %63 = call ptr @proto_tree_add_item(ptr noundef %3, i32 noundef %62, ptr noundef %0, i32 noundef %61, i32 noundef 1, i32 noundef 2)
  %64 = add i32 %.069.lcssa, 71
  %65 = load i32, ptr @hf_pn_rsi_sw_revision, align 4
  %66 = call ptr @proto_tree_add_item(ptr noundef %3, i32 noundef %65, ptr noundef %0, i32 noundef %64, i32 noundef 9, i32 noundef 2)
  %67 = add i32 %.069.lcssa, 80
  br label %68

68:                                               ; preds = %._crit_edge, %16
  %.0 = phi i32 [ %1, %16 ], [ %67, %._crit_edge ]
  call void @llvm.lifetime.end.p0(i64 1, ptr nonnull %13) #3
  call void @llvm.lifetime.end.p0(i64 2, ptr nonnull %12) #3
  call void @llvm.lifetime.end.p0(i64 2, ptr nonnull %11) #3
  call void @llvm.lifetime.end.p0(i64 2, ptr nonnull %10) #3
  call void @llvm.lifetime.end.p0(i64 2, ptr nonnull %9) #3
  ret i32 %.0
}